; Function Attrs: mustprogress nofree norecurse nosync nounwind willreturn memory(read, argmem: readwrite, inaccessiblemem: none) uwtable
define noundef zeroext i1 @_ZN4base14PickleIterator9ReadFloatEPf(ptr noundef nonnull align 8 captures(none) dereferenceable(24) %0, ptr noundef writeonly captures(none) %1) local_unnamed_addr #4 align 2 {
  %3 = getelementptr inbounds nuw i8, ptr %0, i64 16
  %4 = load i64, ptr %3, align 8, !tbaa !22
  %5 = getelementptr inbounds nuw i8, ptr %0, i64 8
  %6 = load i64, ptr %5, align 8, !tbaa !21
  %7 = sub i64 %4, %6
  %8 = icmp ult i64 %7, 4
  %9 = load ptr, ptr %0, align 8
  %10 = getelementptr inbounds nuw i8, ptr %9, i64 %6
  %11 = add i64 %6, 4
  %storemerge.i = select i1 %8, i64 %4, i64 %11
  %.0.i = select i1 %8, ptr null, ptr %10
  store i64 %storemerge.i, ptr %5, align 8, !tbaa !21
  %.not = icmp ne ptr %.0.i, null
  br i1 %.not, label %12, label %14

12:                                               ; preds = %2
  %13 = load i32, ptr %.0.i, align 1
  store i32 %13, ptr %1, align 4
  br label %14

14:                                               ; preds = %2, %12
  ret i1 %.not
}